target datalayout = "e-m:e-p270:32:32-p271:32:32-p272:64:64-i64:64-i128:128-f80:128-n8:16:32:64-S128"
target triple = "x86_64-pc-linux-gnu"

@_ZTISt9exception = external constant ptr
@_ZN12_GLOBAL__N_112errorMessageE = internal global [1024 x i8] zeroinitializer, align 16

; Function Attrs: noinline noreturn nounwind uwtable
define linkonce_odr hidden void @__clang_call_terminate(ptr noundef %0) #11 comdat {
  %2 = call ptr @__cxa_begin_catch(ptr %0) #3
  call void @_ZSt9terminatev() #18
  unreachable
}

; Function Attrs: mustprogress nounwind uwtable
define internal void @_ZN12_GLOBAL__N_115setErrorMessageERKSt9exception(ptr noundef nonnull align 8 dereferenceable(8) %0) #4 {
  %2 = alloca ptr, align 8
  store ptr %0, ptr %2, align 8, !tbaa !23
  %3 = load ptr, ptr %2, align 8, !tbaa !23
  %4 = load ptr, ptr %3, align 8, !tbaa !30
  %5 = getelementptr inbounds ptr, ptr %4, i64 2
  %6 = load ptr, ptr %5, align 8
  %7 = call noundef ptr %6(ptr noundef nonnull align 8 dereferenceable(8) %3) #3
  %8 = call ptr @strncpy(ptr noundef @_ZN12_GLOBAL__N_112errorMessageE, ptr noundef %7, i64 noundef 1023) #3
  store i8 0, ptr getelementptr inbounds ([1024 x i8], ptr @_ZN12_GLOBAL__N_112errorMessageE, i64 0, i64 1023), align 1, !tbaa !32
  ret void
}

; Function Attrs: inlinehint mustprogress nounwind uwtable
define internal noundef ptr @_ZN12_GLOBAL__N_16infileEP12ImfInputFile(ptr noundef %0) #6 {
  %2 = alloca ptr, align 8
  store ptr %0, ptr %2, align 8, !tbaa !129
  %3 = load ptr, ptr %2, align 8, !tbaa !129
  ret ptr %3
}

; Function Attrs: mustprogress uwtable
define i32 @ImfCloseInputFile(ptr noundef %0) #7 personality ptr @__gxx_personality_v0 {
  %2 = alloca i32, align 4
  %3 = alloca ptr, align 8
  %4 = alloca ptr, align 8
  %5 = alloca i32, align 4
  %6 = alloca ptr, align 8
  store ptr %0, ptr %3, align 8, !tbaa !129
  %7 = load ptr, ptr %3, align 8, !tbaa !129
  %8 = invoke noundef ptr @_ZN12_GLOBAL__N_16infileEP12ImfInputFile(ptr noundef %7)
          to label %9 unwind label %16

9:                                                ; preds = %1
  %10 = icmp eq ptr %8, null
  br i1 %10, label %15, label %11

11:                                               ; preds = %9
  %12 = load ptr, ptr %8, align 8, !tbaa !30
  %13 = getelementptr inbounds ptr, ptr %12, i64 1
  %14 = load ptr, ptr %13, align 8
  call void %14(ptr noundef nonnull align 8 dereferenceable(64) %8) #3
  br label %15

15:                                               ; preds = %11, %9
  store i32 1, ptr %2, align 4
  br label %35

16:                                               ; preds = %1
  %17 = landingpad { ptr, i32 }
          catch ptr @_ZTISt9exception
  %18 = extractvalue { ptr, i32 } %17, 0
  store ptr %18, ptr %4, align 8
  %19 = extractvalue { ptr, i32 } %17, 1
  store i32 %19, ptr %5, align 4
  br label %20

20:                                               ; preds = %16
  %21 = load i32, ptr %5, align 4
  %22 = call i32 @llvm.eh.typeid.for.p0(ptr @_ZTISt9exception) #3
  %23 = icmp eq i32 %21, %22
  br i1 %23, label %24, label %37

24:                                               ; preds = %20
  call void @llvm.lifetime.start.p0(i64 8, ptr %6) #3
  %25 = load ptr, ptr %4, align 8
  %26 = call ptr @__cxa_begin_catch(ptr %25) #3
  store ptr %26, ptr %6, align 8
  %27 = load ptr, ptr %6, align 8, !tbaa !23
  invoke void @_ZN12_GLOBAL__N_115setErrorMessageERKSt9exception(ptr noundef nonnull align 8 dereferenceable(8) %27)
          to label %28 unwind label %29

28:                                               ; preds = %24
  store i32 0, ptr %2, align 4
  call void @__cxa_end_catch()
  call void @llvm.lifetime.end.p0(i64 8, ptr %6) #3
  br label %35

29:                                               ; preds = %24
  %30 = landingpad { ptr, i32 }
          cleanup
  %31 = extractvalue { ptr, i32 } %30, 0
  store ptr %31, ptr %4, align 8
  %32 = extractvalue { ptr, i32 } %30, 1
  store i32 %32, ptr %5, align 4
  invoke void @__cxa_end_catch()
          to label %33 unwind label %42

33:                                               ; preds = %29
  call void @llvm.lifetime.end.p0(i64 8, ptr %6) #3
  br label %37

34:                                               ; No predecessors!
  unreachable

35:                                               ; preds = %28, %15
  %36 = load i32, ptr %2, align 4
  ret i32 %36

37:                                               ; preds = %33, %20
  %38 = load ptr, ptr %4, align 8
  %39 = load i32, ptr %5, align 4
  %40 = insertvalue { ptr, i32 } poison, ptr %38, 0
  %41 = insertvalue { ptr, i32 } %40, i32 %39, 1
  resume { ptr, i32 } %41

42:                                               ; preds = %29
  %43 = landingpad { ptr, i32 }
          catch ptr null
  %44 = extractvalue { ptr, i32 } %43, 0
  call void @__clang_call_terminate(ptr %44) #18
  unreachable
}